; ModuleID = '21/886.c'
source_filename = "21/886.c"
target datalayout = "e-m:e-p270:32:32-p271:32:32-p272:64:64-i64:64-f80:128-n8:16:32:64-S128"
target triple = "x86_64-pc-linux-gnu"

@.str = private unnamed_addr constant [3 x i8] c"%d\00", align 1
@.str.1 = private unnamed_addr constant [3 x i8] c"%f\00", align 1
@.str.2 = private unnamed_addr constant [4 x i8] c"%d,\00", align 1
@.str.3 = private unnamed_addr constant [4 x i8] c"%d\0A\00", align 1

; Function Attrs: noinline nounwind uwtable
define dso_local i32 @main() #0 {
  %1 = alloca i32, align 4
  %2 = alloca i32, align 4
  %3 = alloca i32, align 4
  %4 = alloca i32, align 4
  %5 = alloca [300 x i32], align 16
  %6 = alloca [300 x float], align 16
  %7 = alloca [300 x float], align 16
  %8 = alloca float, align 4
  %9 = alloca float, align 4
  store i32 0, i32* %1, align 4
  store i32 0, i32* %4, align 4
  %10 = bitcast [300 x i32]* %5 to i8*
  call void @llvm.memset.p0i8.i64(i8* align 16 %10, i8 0, i64 1200, i1 false)
  %11 = bitcast [300 x float]* %6 to i8*
  call void @llvm.memset.p0i8.i64(i8* align 16 %11, i8 0, i64 1200, i1 false)
  %12 = bitcast [300 x float]* %7 to i8*
  call void @llvm.memset.p0i8.i64(i8* align 16 %12, i8 0, i64 1200, i1 false)
  store float 0.000000e+00, float* %8, align 4
  store float 0.000000e+00, float* %9, align 4
  %13 = call i32 (i8*, ...) @__isoc99_scanf(i8* getelementptr inbounds ([3 x i8], [3 x i8]* @.str, i64 0, i64 0), i32* %2)
  store i32 0, i32* %3, align 4
  br label %14

14:                                               ; preds = %29, %0
  %15 = load i32, i32* %3, align 4
  %16 = load i32, i32* %2, align 4
  %17 = icmp slt i32 %15, %16
  br i1 %17, label %18, label %32

18:                                               ; preds = %14
  %19 = load i32, i32* %3, align 4
  %20 = sext i32 %19 to i64
  %21 = getelementptr inbounds [300 x float], [300 x float]* %6, i64 0, i64 %20
  %22 = call i32 (i8*, ...) @__isoc99_scanf(i8* getelementptr inbounds ([3 x i8], [3 x i8]* @.str.1, i64 0, i64 0), float* %21)
  %23 = load float, float* %8, align 4
  %24 = load i32, i32* %3, align 4
  %25 = sext i32 %24 to i64
  %26 = getelementptr inbounds [300 x float], [300 x float]* %6, i64 0, i64 %25
  %27 = load float, float* %26, align 4
  %28 = fadd float %23, %27
  store float %28, float* %8, align 4
  br label %29

29:                                               ; preds = %18
  %30 = load i32, i32* %3, align 4
  %31 = add nsw i32 %30, 1
  store i32 %31, i32* %3, align 4
  br label %14

32:                                               ; preds = %14
  %33 = load float, float* %8, align 4
  %34 = load i32, i32* %2, align 4
  %35 = sitofp i32 %34 to float
  %36 = fdiv float %33, %35
  store float %36, float* %8, align 4
  store i32 0, i32* %3, align 4
  br label %37

37:                                               ; preds = %66, %32
  %38 = load i32, i32* %3, align 4
  %39 = load i32, i32* %2, align 4
  %40 = icmp slt i32 %38, %39
  br i1 %40, label %41, label %69

41:                                               ; preds = %37
  %42 = load i32, i32* %3, align 4
  %43 = sext i32 %42 to i64
  %44 = getelementptr inbounds [300 x float], [300 x float]* %6, i64 0, i64 %43
  %45 = load float, float* %44, align 4
  %46 = load float, float* %8, align 4
  %47 = fsub float %45, %46
  %48 = fpext float %47 to double
  %49 = call double @llvm.fabs.f64(double %48)
  %50 = fptrunc double %49 to float
  %51 = load i32, i32* %3, align 4
  %52 = sext i32 %51 to i64
  %53 = getelementptr inbounds [300 x float], [300 x float]* %7, i64 0, i64 %52
  store float %50, float* %53, align 4
  %54 = load i32, i32* %3, align 4
  %55 = sext i32 %54 to i64
  %56 = getelementptr inbounds [300 x float], [300 x float]* %7, i64 0, i64 %55
  %57 = load float, float* %56, align 4
  %58 = load float, float* %9, align 4
  %59 = fcmp ogt float %57, %58
  br i1 %59, label %60, label %65

60:                                               ; preds = %41
  %61 = load i32, i32* %3, align 4
  %62 = sext i32 %61 to i64
  %63 = getelementptr inbounds [300 x float], [300 x float]* %7, i64 0, i64 %62
  %64 = load float, float* %63, align 4
  store float %64, float* %9, align 4
  br label %65

65:                                               ; preds = %60, %41
  br label %66

66:                                               ; preds = %65
  %67 = load i32, i32* %3, align 4
  %68 = add nsw i32 %67, 1
  store i32 %68, i32* %3, align 4
  br label %37

69:                                               ; preds = %37
  store i32 0, i32* %3, align 4
  br label %70

70:                                               ; preds = %95, %69
  %71 = load i32, i32* %3, align 4
  %72 = load i32, i32* %2, align 4
  %73 = icmp slt i32 %71, %72
  br i1 %73, label %74, label %98

74:                                               ; preds = %70
  %75 = load float, float* %9, align 4
  %76 = load i32, i32* %3, align 4
  %77 = sext i32 %76 to i64
  %78 = getelementptr inbounds [300 x float], [300 x float]* %7, i64 0, i64 %77
  %79 = load float, float* %78, align 4
  %80 = fsub float %75, %79
  %81 = fpext float %80 to double
  %82 = fcmp olt double %81, 0x3EB0C6F7A0B5ED8D
  br i1 %82, label %83, label %94

83:                                               ; preds = %74
  %84 = load i32, i32* %3, align 4
  %85 = sext i32 %84 to i64
  %86 = getelementptr inbounds [300 x float], [300 x float]* %6, i64 0, i64 %85
  %87 = load float, float* %86, align 4
  %88 = fptosi float %87 to i32
  %89 = load i32, i32* %4, align 4
  %90 = sext i32 %89 to i64
  %91 = getelementptr inbounds [300 x i32], [300 x i32]* %5, i64 0, i64 %90
  store i32 %88, i32* %91, align 4
  %92 = load i32, i32* %4, align 4
  %93 = add nsw i32 %92, 1
  store i32 %93, i32* %4, align 4
  br label %94

94:                                               ; preds = %83, %74
  br label %95

95:                                               ; preds = %94
  %96 = load i32, i32* %3, align 4
  %97 = add nsw i32 %96, 1
  store i32 %97, i32* %3, align 4
  br label %70

98:                                               ; preds = %70
  store i32 0, i32* %3, align 4
  br label %99

99:                                               ; preds = %110, %98
  %100 = load i32, i32* %3, align 4
  %101 = load i32, i32* %4, align 4
  %102 = sub nsw i32 %101, 1
  %103 = icmp slt i32 %100, %102
  br i1 %103, label %104, label %113

104:                                              ; preds = %99
  %105 = load i32, i32* %3, align 4
  %106 = sext i32 %105 to i64
  %107 = getelementptr inbounds [300 x i32], [300 x i32]* %5, i64 0, i64 %106
  %108 = load i32, i32* %107, align 4
  %109 = call i32 (i8*, ...) @printf(i8* getelementptr inbounds ([4 x i8], [4 x i8]* @.str.2, i64 0, i64 0), i32 %108)
  br label %110

110:                                              ; preds = %104
  %111 = load i32, i32* %3, align 4
  %112 = add nsw i32 %111, 1
  store i32 %112, i32* %3, align 4
  br label %99

113:                                              ; preds = %99
  %114 = load i32, i32* %4, align 4
  %115 = sub nsw i32 %114, 1
  %116 = sext i32 %115 to i64
  %117 = getelementptr inbounds [300 x i32], [300 x i32]* %5, i64 0, i64 %116
  %118 = load i32, i32* %117, align 4
  %119 = call i32 (i8*, ...) @printf(i8* getelementptr inbounds ([4 x i8], [4 x i8]* @.str.3, i64 0, i64 0), i32 %118)
  ret i32 0
}

; Function Attrs: argmemonly nounwind willreturn
declare void @llvm.memset.p0i8.i64(i8* nocapture writeonly, i8, i64, i1 immarg) #1

declare dso_local i32 @__isoc99_scanf(i8*, ...) #2

; Function Attrs: nounwind readnone speculatable willreturn
declare double @llvm.fabs.f64(double) #3

declare dso_local i32 @printf(i8*, ...) #2


!llvm.module.flags = !{!0}
!llvm.ident = !{!1}

!0 = !{i32 1, !"wchar_size", i32 4}
!1 = !{!"clang version 10.0.0-4ubuntu1 "}
